(dp1
S'layout'
p2
(ilayout
Layout
p3
(dp4
S'capsules'
p5
(lp6
(I23
I1
tp7
a(I13
I4
tp8
a(I20
I13
tp9
a(I10
I16
tp10
asS'numGhosts'
p11
I4
sS'food'
p12
(igame
Grid
p13
(dp14
S'CELLS_PER_INT'
p15
I30
sS'width'
p16
I34
sS'data'
p17
(lp18
(lp19
I00
aI00
aI00
aI00
aI00
aI00
aI00
aI00
aI00
aI00
aI00
aI00
aI00
aI00
aI00
aI00
aI00
aI00
aa(lp20
I00
aI00
aI00
aI00
aI00
aI00
aI00
aI00
aI00
aI00
aI00
aI01
aI00
aI00
aI01
aI00
aI01
aI00
aa(lp21
I00
aI00
aI00
aI00
aI00
aI00
aI00
aI00
aI00
aI00
aI00
aI00
aI00
aI00
aI01
aI00
aI01
aI00
aa(lp22
I00
aI00
aI00
aI00
aI00
aI00
aI00
aI00
aI00
aI00
aI00
aI00
aI00
aI00
aI00
aI00
aI00
aI00
aa(lp23
I00
aI00
aI00
aI00
aI00
aI00
aI00
aI01
aI00
aI00
aI00
aI00
aI00
aI01
aI00
aI00
aI01
aI00
aa(lp24
I00
aI00
aI00
aI00
aI00
aI01
aI00
aI00
aI00
aI00
aI00
aI00
aI00
aI00
aI00
aI00
aI01
aI00
aa(lp25
I00
aI00
aI00
aI00
aI00
aI00
aI00
aI00
aI00
aI00
aI00
aI00
aI00
aI01
aI00
aI00
aI00
aI00
aa(lp26
I00
aI01
aI00
aI01
aI00
aI00
aI00
aI01
aI00
aI01
aI00
aI01
aI00
aI00
aI00
aI00
aI00
aI00
aa(lp27
I00
aI00
aI00
aI00
aI00
aI00
aI00
aI00
aI00
aI01
aI00
aI01
aI00
aI00
aI00
aI00
aI01
aI00
aa(lp28
I00
aI00
aI00
aI00
aI00
aI01
aI00
aI00
aI00
aI00
aI00
aI00
aI00
aI00
aI00
aI00
aI00
aI00
aa(lp29
I00
aI01
aI00
aI00
aI00
aI00
aI00
aI00
aI00
aI00
aI00
aI00
aI00
aI00
aI00
aI00
aI00
aI00
aa(lp30
I00
aI01
aI00
aI01
aI00
aI00
aI00
aI00
aI01
aI00
aI01
aI00
aI00
aI00
aI00
aI00
aI00
aI00
aa(lp31
I00
aI00
aI00
aI00
aI00
aI00
aI00
aI00
aI00
aI00
aI00
aI00
aI00
aI00
aI00
aI00
aI01
aI00
aa(lp32
I00
aI01
aI00
aI00
aI00
aI00
aI00
aI01
aI00
aI00
aI01
aI00
aI00
aI00
aI00
aI00
aI01
aI00
aa(lp33
I00
aI00
aI00
aI00
aI00
aI00
aI00
aI00
aI00
aI00
aI00
aI00
aI00
aI00
aI00
aI00
aI00
aI00
aa(lp34
I00
aI00
aI00
aI00
aI00
aI00
aI00
aI00
aI00
aI00
aI00
aI00
aI00
aI00
aI00
aI00
aI00
aI00
aa(lp35
I00
aI00
aI00
aI00
aI00
aI00
aI00
aI00
aI00
aI00
aI00
aI00
aI00
aI00
aI00
aI00
aI00
aI00
aa(lp36
I00
aI00
aI00
aI00
aI00
aI00
aI00
aI00
aI00
aI00
aI00
aI00
aI00
aI00
aI00
aI00
aI00
aI00
aa(lp37
I00
aI00
aI00
aI00
aI00
aI00
aI00
aI00
aI00
aI00
aI00
aI00
aI00
aI00
aI00
aI00
aI00
aI00
aa(lp38
I00
aI00
aI00
aI00
aI00
aI00
aI00
aI00
aI00
aI00
aI00
aI00
aI00
aI00
aI00
aI00
aI00
aI00
aa(lp39
I00
aI01
aI00
aI00
aI00
aI00
aI00
aI01
aI00
aI00
aI01
aI00
aI00
aI00
aI00
aI00
aI01
aI00
aa(lp40
I00
aI01
aI00
aI00
aI00
aI00
aI00
aI00
aI00
aI00
aI00
aI00
aI00
aI00
aI00
aI00
aI00
aI00
aa(lp41
I00
aI00
aI00
aI00
aI00
aI00
aI00
aI01
aI00
aI01
aI00
aI00
aI00
aI00
aI01
aI00
aI01
aI00
aa(lp42
I00
aI00
aI00
aI00
aI00
aI00
aI00
aI00
aI00
aI00
aI00
aI00
aI00
aI00
aI00
aI00
aI01
aI00
aa(lp43
I00
aI00
aI00
aI00
aI00
aI00
aI00
aI00
aI00
aI00
aI00
aI00
aI01
aI00
aI00
aI00
aI00
aI00
aa(lp44
I00
aI01
aI00
aI00
aI00
aI00
aI01
aI00
aI01
aI00
aI00
aI00
aI00
aI00
aI00
aI00
aI00
aI00
aa(lp45
I00
aI00
aI00
aI00
aI00
aI00
aI01
aI00
aI01
aI00
aI01
aI00
aI00
aI00
aI01
aI00
aI01
aI00
aa(lp46
I00
aI00
aI00
aI00
aI01
aI00
aI00
aI00
aI00
aI00
aI00
aI00
aI00
aI00
aI00
aI00
aI00
aI00
aa(lp47
I00
aI01
aI00
aI00
aI00
aI00
aI00
aI00
aI00
aI00
aI00
aI00
aI01
aI00
aI00
aI00
aI00
aI00
aa(lp48
I00
aI01
aI00
aI00
aI01
aI00
aI00
aI00
aI00
aI00
aI01
aI00
aI00
aI00
aI00
aI00
aI00
aI00
aa(lp49
I00
aI00
aI00
aI00
aI00
aI00
aI00
aI00
aI00
aI00
aI00
aI00
aI00
aI00
aI00
aI00
aI00
aI00
aa(lp50
I00
aI01
aI00
aI01
aI00
aI00
aI00
aI00
aI00
aI00
aI00
aI00
aI00
aI00
aI00
aI00
aI00
aI00
aa(lp51
I00
aI01
aI00
aI01
aI00
aI00
aI01
aI00
aI00
aI00
aI00
aI00
aI00
aI00
aI00
aI00
aI00
aI00
aa(lp52
I00
aI00
aI00
aI00
aI00
aI00
aI00
aI00
aI00
aI00
aI00
aI00
aI00
aI00
aI00
aI00
aI00
aI00
aasS'height'
p53
I18
sbsS'agentPositions'
p54
(lp55
(I00
(I1
I2
tp56
tp57
a(I00
(I32
I15
tp58
tp59
a(I00
(I1
I1
tp60
tp61
a(I00
(I32
I16
tp62
tp63
asg53
I18
sg16
I34
sS'walls'
p64
(igame
Grid
p65
(dp66
g15
I30
sg16
I34
sg17
(lp67
(lp68
I01
aI01
aI01
aI01
aI01
aI01
aI01
aI01
aI01
aI01
aI01
aI01
aI01
aI01
aI01
aI01
aI01
aI01
aa(lp69
I01
aI00
aI00
aI00
aI00
aI00
aI01
aI00
aI00
aI01
aI00
aI00
aI00
aI00
aI00
aI00
aI00
aI01
aa(lp70
I01
aI00
aI01
aI00
aI01
aI00
aI00
aI00
aI00
aI00
aI00
aI01
aI00
aI00
aI00
aI01
aI00
aI01
aa(lp71
I01
aI01
aI01
aI00
aI01
aI01
aI01
aI00
aI01
aI01
aI00
aI01
aI01
aI01
aI01
aI01
aI01
aI01
aa(lp72
I01
aI00
aI01
aI00
aI00
aI00
aI00
aI00
aI00
aI01
aI00
aI01
aI00
aI00
aI00
aI01
aI00
aI01
aa(lp73
I01
aI00
aI01
aI00
aI01
aI00
aI01
aI00
aI00
aI00
aI00
aI00
aI00
aI00
aI00
aI01
aI00
aI01
aa(lp74
I01
aI00
aI01
aI01
aI01
aI01
aI01
aI01
aI01
aI01
aI01
aI01
aI01
aI00
aI01
aI01
aI00
aI01
aa(lp75
I01
aI00
aI01
aI00
aI00
aI00
aI00
aI00
aI00
aI00
aI01
aI00
aI00
aI00
aI00
aI01
aI00
aI01
aa(lp76
I01
aI00
aI01
aI01
aI00
aI01
aI01
aI01
aI01
aI00
aI00
aI00
aI00
aI01
aI00
aI01
aI00
aI01
aa(lp77
I01
aI00
aI00
aI00
aI00
aI00
aI00
aI00
aI00
aI00
aI01
aI00
aI00
aI01
aI00
aI01
aI00
aI01
aa(lp78
I01
aI00
aI01
aI01
aI00
aI01
aI01
aI01
aI01
aI01
aI01
aI01
aI00
aI00
aI00
aI01
aI00
aI01
aa(lp79
I01
aI00
aI01
aI00
aI00
aI00
aI00
aI00
aI00
aI00
aI00
aI00
aI00
aI01
aI00
aI01
aI00
aI01
aa(lp80
I01
aI01
aI01
aI01
aI01
aI01
aI01
aI00
aI01
aI01
aI01
aI01
aI01
aI01
aI00
aI00
aI00
aI01
aa(lp81
I01
aI00
aI00
aI00
aI00
aI00
aI00
aI00
aI00
aI00
aI00
aI00
aI00
aI00
aI00
aI01
aI00
aI01
aa(lp82
I01
aI01
aI00
aI01
aI01
aI01
aI01
aI01
aI01
aI01
aI01
aI00
aI01
aI01
aI01
aI01
aI00
aI01
aa(lp83
I01
aI00
aI00
aI01
aI00
aI00
aI00
aI01
aI00
aI00
aI01
aI00
aI01
aI00
aI00
aI01
aI00
aI01
aa(lp84
I01
aI00
aI00
aI01
aI00
aI01
aI00
aI00
aI00
aI00
aI00
aI00
aI00
aI00
aI00
aI00
aI00
aI01
aa(lp85
I01
aI00
aI00
aI00
aI00
aI00
aI00
aI00
aI00
aI00
aI00
aI00
aI01
aI00
aI01
aI00
aI00
aI01
aa(lp86
I01
aI00
aI01
aI00
aI00
aI01
aI00
aI01
aI00
aI00
aI01
aI00
aI00
aI00
aI01
aI00
aI00
aI01
aa(lp87
I01
aI00
aI01
aI01
aI01
aI01
aI00
aI01
aI01
aI01
aI01
aI01
aI01
aI01
aI01
aI00
aI01
aI01
aa(lp88
I01
aI00
aI01
aI00
aI00
aI00
aI00
aI00
aI00
aI00
aI00
aI00
aI00
aI00
aI00
aI00
aI00
aI01
aa(lp89
I01
aI00
aI00
aI00
aI01
aI01
aI01
aI01
aI01
aI01
aI00
aI01
aI01
aI01
aI01
aI01
aI01
aI01
aa(lp90
I01
aI00
aI01
aI00
aI01
aI00
aI00
aI00
aI00
aI00
aI00
aI00
aI00
aI00
aI00
aI01
aI00
aI01
aa(lp91
I01
aI00
aI01
aI00
aI00
aI00
aI01
aI01
aI01
aI01
aI01
aI01
aI01
aI00
aI01
aI01
aI00
aI01
aa(lp92
I01
aI00
aI01
aI00
aI01
aI00
aI00
aI01
aI00
aI00
aI00
aI00
aI00
aI00
aI00
aI00
aI00
aI01
aa(lp93
I01
aI00
aI01
aI00
aI01
aI00
aI00
aI00
aI00
aI01
aI01
aI01
aI01
aI00
aI01
aI01
aI00
aI01
aa(lp94
I01
aI00
aI01
aI00
aI00
aI00
aI00
aI01
aI00
aI00
aI00
aI00
aI00
aI00
aI00
aI01
aI00
aI01
aa(lp95
I01
aI00
aI01
aI01
aI00
aI01
aI01
aI01
aI01
aI01
aI01
aI01
aI01
aI01
aI01
aI01
aI00
aI01
aa(lp96
I01
aI00
aI01
aI00
aI00
aI00
aI00
aI00
aI00
aI00
aI00
aI01
aI00
aI01
aI00
aI01
aI00
aI01
aa(lp97
I01
aI00
aI01
aI00
aI00
aI00
aI01
aI00
aI01
aI00
aI00
aI00
aI00
aI00
aI00
aI01
aI00
aI01
aa(lp98
I01
aI01
aI01
aI01
aI01
aI01
aI01
aI00
aI01
aI01
aI00
aI01
aI01
aI01
aI00
aI01
aI01
aI01
aa(lp99
I01
aI00
aI01
aI00
aI00
aI00
aI01
aI00
aI00
aI00
aI00
aI00
aI00
aI01
aI00
aI01
aI00
aI01
aa(lp100
I01
aI00
aI00
aI00
aI00
aI00
aI00
aI00
aI01
aI00
aI00
aI01
aI00
aI00
aI00
aI00
aI00
aI01
aa(lp101
I01
aI01
aI01
aI01
aI01
aI01
aI01
aI01
aI01
aI01
aI01
aI01
aI01
aI01
aI01
aI01
aI01
aI01
aasg53
I18
sbsS'layoutText'
p102
(lp103
S'%%%%%%%%%%%%%%%%%%%%%%%%%%%%%%%%%%'
p104
aS'%..%..  . o ..     %.%..  .   % 4%'
p105
aS'% %%%%%%%%%% %%%     %%% %%%%%%%2%'
p106
aS'%..%  %       %  %%% %.% %.%     %'
p107
aS'%  %. . %% %% %    %o%     %% %% %'
p108
aS'%  %  %     % %% % % % %.% %. %  %'
p109
aS'%.%%% %.. % %      % % % % %% % %%'
p110
aS'%     %% %%.%.%%  %%.  % %.% .   %'
p111
aS'%% %% %.. % % %    % %.% % %  %  %'
p112
aS'%  %  % % %.% %    % % % ..% %% %%'
p113
aS'%   . %.% %  .%%  %%.%.%% %%     %'
p114
aS'%% % %% % % % %      % % ..% %%%.%'
p115
aS'%  % .% %.% % % % %% %     %  %  %'
p116
aS'% %% %%     %o%    % %% %% . .%  %'
p117
aS'%     %.% %.% %%%  %       %  %..%'
p118
aS'%1%%%%%%% %%%     %%% %%%%%%%%%% %'
p119
aS'%3 %   .  ..%.%     .. o .  ..%..%'
p120
aS'%%%%%%%%%%%%%%%%%%%%%%%%%%%%%%%%%%'
p121
asbsS'blueTeamName'
p122
S'HAL9000'
p123
sS'actions'
p124
(lp125
(I0
S'North'
p126
tp127
a(I1
S'South'
p128
tp129
a(I2
g126
tp130
a(I3
g128
tp131
a(I0
g126
tp132
a(I1
g128
tp133
a(I2
g126
tp134
a(I3
g128
tp135
a(I0
g126
tp136
a(I1
g128
tp137
a(I2
g126
tp138
a(I3
g128
tp139
a(I0
S'East'
p140
tp141
a(I1
S'West'
p142
tp143
a(I2
g126
tp144
a(I3
g128
tp145
a(I0
g126
tp146
a(I1
g128
tp147
a(I2
g140
tp148
a(I3
g142
tp149
a(I0
g126
tp150
a(I1
g128
tp151
a(I2
g126
tp152
a(I3
g128
tp153
a(I0
g140
tp154
a(I1
g142
tp155
a(I2
g126
tp156
a(I3
g128
tp157
a(I0
g140
tp158
a(I1
g142
tp159
a(I2
g126
tp160
a(I3
g128
tp161
a(I0
g126
tp162
a(I1
g128
tp163
a(I2
g126
tp164
a(I3
g128
tp165
a(I0
g140
tp166
a(I1
g142
tp167
a(I2
g126
tp168
a(I3
g128
tp169
a(I0
g126
tp170
a(I1
g128
tp171
a(I2
g140
tp172
a(I3
g142
tp173
a(I0
g126
tp174
a(I1
g128
tp175
a(I2
g140
tp176
a(I3
g142
tp177
a(I0
g126
tp178
a(I1
g128
tp179
a(I2
g140
tp180
a(I3
g142
tp181
a(I0
g126
tp182
a(I1
g128
tp183
a(I2
g126
tp184
a(I3
g128
tp185
a(I0
g126
tp186
a(I1
g128
tp187
a(I2
g126
tp188
a(I3
g128
tp189
a(I0
g140
tp190
a(I1
g142
tp191
a(I2
g126
tp192
a(I3
g128
tp193
a(I0
g140
tp194
a(I1
g142
tp195
a(I2
g140
tp196
a(I3
g142
tp197
a(I0
g126
tp198
a(I1
g128
tp199
a(I2
g140
tp200
a(I3
g142
tp201
a(I0
g140
tp202
a(I1
g142
tp203
a(I2
g126
tp204
a(I3
g126
tp205
a(I0
g140
tp206
a(I1
g142
tp207
a(I2
g140
tp208
a(I3
g142
tp209
a(I0
g140
tp210
a(I1
g142
tp211
a(I2
g140
tp212
a(I3
g142
tp213
a(I0
g140
tp214
a(I1
g142
tp215
a(I2
g140
tp216
a(I3
g142
tp217
a(I0
g140
tp218
a(I1
g142
tp219
a(I2
g140
tp220
a(I3
g142
tp221
a(I0
g126
tp222
a(I1
g128
tp223
a(I2
g140
tp224
a(I3
g126
tp225
a(I0
g126
tp226
a(I1
g128
tp227
a(I2
g140
tp228
a(I3
g126
tp229
a(I0
g140
tp230
a(I1
g142
tp231
a(I2
g128
tp232
a(I3
g126
tp233
a(I0
g140
tp234
a(I1
g142
tp235
a(I2
g128
tp236
a(I3
g126
tp237
a(I0
g140
tp238
a(I1
g142
tp239
a(I2
g128
tp240
a(I3
g126
tp241
a(I0
g140
tp242
a(I1
g142
tp243
a(I2
g140
tp244
a(I3
g142
tp245
a(I0
g140
tp246
a(I1
g142
tp247
a(I2
g140
tp248
a(I3
g142
tp249
a(I0
g128
tp250
a(I1
g142
tp251
a(I2
g140
tp252
a(I3
g126
tp253
a(I0
g126
tp254
a(I1
g126
tp255
a(I2
g128
tp256
a(I3
g126
tp257
a(I0
g128
tp258
a(I1
g142
tp259
a(I2
g128
tp260
a(I3
g126
tp261
a(I0
g126
tp262
a(I1
g142
tp263
a(I2
g128
tp264
a(I3
g126
tp265
a(I0
g142
tp266
a(I1
g128
tp267
a(I2
g142
tp268
a(I3
g126
tp269
a(I0
g142
tp270
a(I1
g126
tp271
a(I2
g140
tp272
a(I3
g126
tp273
a(I0
g142
tp274
a(I1
g126
tp275
a(I2
g128
tp276
a(I3
g128
tp277
a(I0
g140
tp278
a(I1
g126
tp279
a(I2
g126
tp280
a(I3
g126
tp281
a(I0
g142
tp282
a(I1
g126
tp283
a(I2
g126
tp284
a(I3
g128
tp285
a(I0
g140
tp286
a(I1
g126
tp287
a(I2
g128
tp288
a(I3
g126
tp289
a(I0
g142
tp290
a(I1
g126
tp291
a(I2
g126
tp292
a(I3
g128
tp293
a(I0
g140
tp294
a(I1
g142
tp295
a(I2
g128
tp296
a(I3
g126
tp297
a(I0
g142
tp298
a(I1
g142
tp299
a(I2
g128
tp300
a(I3
g128
tp301
a(I0
g140
tp302
a(I1
g126
tp303
a(I2
g126
tp304
a(I3
g126
tp305
a(I0
g142
tp306
a(I1
g126
tp307
a(I2
g142
tp308
a(I3
g128
tp309
a(I0
g140
tp310
a(I1
g126
tp311
a(I2
g140
tp312
a(I3
g126
tp313
a(I0
g142
tp314
a(I1
g126
tp315
a(I2
g128
tp316
a(I3
g128
tp317
a(I0
g140
tp318
a(I1
g126
tp319
a(I2
g126
tp320
a(I3
g126
tp321
a(I0
g142
tp322
a(I1
g142
tp323
a(I2
g126
tp324
a(I3
g128
tp325
a(I0
g140
tp326
a(I1
g142
tp327
a(I2
g128
tp328
a(I3
g126
tp329
a(I0
g142
tp330
a(I1
g142
tp331
a(I2
g128
tp332
a(I3
g128
tp333
a(I0
g140
tp334
a(I1
g128
tp335
a(I2
g126
tp336
a(I3
g126
tp337
a(I0
g142
tp338
a(I1
g142
tp339
a(I2
g142
tp340
a(I3
g128
tp341
a(I0
g140
tp342
a(I1
g126
tp343
a(I2
g140
tp344
a(I3
g126
tp345
a(I0
g142
tp346
a(I1
g126
tp347
a(I2
g126
tp348
a(I3
g128
tp349
a(I0
g140
tp350
a(I1
g142
tp351
a(I2
g128
tp352
a(I3
g126
tp353
a(I0
g142
tp354
a(I1
g142
tp355
a(I2
g142
tp356
a(I3
g128
tp357
a(I0
g140
tp358
a(I1
g142
tp359
a(I2
g140
tp360
a(I3
g126
tp361
a(I0
g142
tp362
a(I1
g128
tp363
a(I2
g128
tp364
a(I3
g128
tp365
a(I0
g140
tp366
a(I1
g140
tp367
a(I2
g126
tp368
a(I3
g126
tp369
a(I0
g142
tp370
a(I1
g128
tp371
a(I2
g142
tp372
a(I3
g128
tp373
a(I0
g140
tp374
a(I1
g128
tp375
a(I2
g140
tp376
a(I3
g126
tp377
a(I0
g142
tp378
a(I1
g128
tp379
a(I2
g128
tp380
a(I3
g128
tp381
a(I0
g140
tp382
a(I1
g128
tp383
a(I2
g126
tp384
a(I3
g126
tp385
a(I0
g142
tp386
a(I1
g128
tp387
a(I2
g142
tp388
a(I3
g128
tp389
a(I0
g140
tp390
a(I1
g142
tp391
a(I2
g140
tp392
a(I3
g126
tp393
a(I0
g142
tp394
a(I1
g128
tp395
a(I2
g128
tp396
a(I3
g128
tp397
a(I0
g140
tp398
a(I1
g128
tp399
a(I2
g126
tp400
a(I3
g126
tp401
a(I0
g142
tp402
a(I1
g140
tp403
a(I2
g126
tp404
a(I3
g128
tp405
a(I0
g140
tp406
a(I1
g142
tp407
a(I2
g128
tp408
a(I3
g126
tp409
a(I0
g142
tp410
a(I1
g126
tp411
a(I2
g128
tp412
a(I3
g128
tp413
a(I0
g140
tp414
a(I1
g126
tp415
a(I2
g126
tp416
a(I3
g126
tp417
a(I0
g142
tp418
a(I1
g142
tp419
a(I2
g126
tp420
a(I3
g128
tp421
a(I0
g140
tp422
a(I1
g142
tp423
a(I2
g128
tp424
a(I3
g126
tp425
a(I0
g142
tp426
a(I1
g126
tp427
a(I2
g128
tp428
a(I3
g128
tp429
a(I0
g140
tp430
a(I1
g126
tp431
a(I2
g126
tp432
a(I3
g126
tp433
a(I0
g142
tp434
a(I1
g126
tp435
a(I2
g126
tp436
a(I3
g128
tp437
a(I0
g140
tp438
a(I1
g142
tp439
a(I2
g128
tp440
a(I3
g126
tp441
a(I0
g142
tp442
a(I1
g126
tp443
a(I2
g142
tp444
a(I3
g128
tp445
a(I0
g140
tp446
a(I1
g126
tp447
a(I2
g140
tp448
a(I3
g126
tp449
a(I0
g142
tp450
a(I1
g126
tp451
a(I2
g126
tp452
a(I3
g128
tp453
a(I0
g140
tp454
a(I1
g126
tp455
a(I2
g128
tp456
a(I3
g126
tp457
a(I0
g142
tp458
a(I1
g140
tp459
a(I2
g142
tp460
a(I3
g128
tp461
a(I0
g140
tp462
a(I1
g142
tp463
a(I2
g140
tp464
a(I3
g126
tp465
a(I0
g142
tp466
a(I1
g126
tp467
a(I2
g126
tp468
a(I3
g128
tp469
a(I0
g140
tp470
a(I1
g126
tp471
a(I2
g128
tp472
a(I3
g126
tp473
a(I0
g142
tp474
a(I1
g140
tp475
a(I2
g142
tp476
a(I3
g128
tp477
a(I0
g140
tp478
a(I1
g142
tp479
a(I2
g140
tp480
a(I3
g126
tp481
a(I0
g142
tp482
a(I1
g128
tp483
a(I2
g128
tp484
a(I3
g128
tp485
a(I0
g140
tp486
a(I1
g128
tp487
a(I2
g126
tp488
a(I3
g126
tp489
a(I0
g142
tp490
a(I1
g128
tp491
a(I2
g142
tp492
a(I3
g128
tp493
a(I0
g140
tp494
a(I1
g128
tp495
a(I2
g140
tp496
a(I3
g126
tp497
a(I0
g142
tp498
a(I1
g128
tp499
a(I2
g128
tp500
a(I3
g128
tp501
a(I0
g140
tp502
a(I1
g128
tp503
a(I2
g126
tp504
a(I3
g126
tp505
a(I0
g142
tp506
a(I1
g140
tp507
a(I2
g126
tp508
a(I3
g128
tp509
a(I0
g140
tp510
a(I1
g140
tp511
a(I2
g128
tp512
a(I3
g126
tp513
a(I0
g142
tp514
a(I1
g140
tp515
a(I2
g142
tp516
a(I3
g128
tp517
a(I0
g140
tp518
a(I1
g140
tp519
a(I2
g140
tp520
a(I3
g126
tp521
a(I0
g142
tp522
a(I1
g126
tp523
a(I2
g126
tp524
a(I3
g128
tp525
a(I0
g140
tp526
a(I1
g126
tp527
a(I2
g128
tp528
a(I3
g126
tp529
a(I0
g142
tp530
a(I1
g126
tp531
a(I2
g142
tp532
a(I3
g128
tp533
a(I0
g140
tp534
a(I1
g140
tp535
a(I2
g140
tp536
a(I3
g126
tp537
a(I0
g142
tp538
a(I1
g140
tp539
a(I2
g126
tp540
a(I3
g128
tp541
a(I0
g140
tp542
a(I1
g128
tp543
a(I2
g128
tp544
a(I3
g126
tp545
a(I0
g142
tp546
a(I1
g140
tp547
a(I2
g128
tp548
a(I3
g128
tp549
a(I0
g140
tp550
a(I1
g128
tp551
a(I2
g126
tp552
a(I3
g126
tp553
a(I0
g142
tp554
a(I1
g128
tp555
a(I2
g126
tp556
a(I3
g128
tp557
a(I0
g140
tp558
a(I1
g128
tp559
a(I2
g128
tp560
a(I3
g126
tp561
a(I0
g142
tp562
a(I1
g142
tp563
a(I2
g128
tp564
a(I3
g128
tp565
a(I0
g140
tp566
a(I1
g128
tp567
a(I2
g126
tp568
a(I3
g126
tp569
a(I0
g142
tp570
a(I1
g128
tp571
a(I2
g142
tp572
a(I3
g128
tp573
a(I0
g140
tp574
a(I1
g128
tp575
a(I2
g140
tp576
a(I3
g126
tp577
a(I0
g142
tp578
a(I1
g128
tp579
a(I2
g126
tp580
a(I3
g128
tp581
a(I0
g140
tp582
a(I1
g128
tp583
a(I2
g128
tp584
a(I3
g126
tp585
a(I0
g142
tp586
a(I1
g128
tp587
a(I2
g128
tp588
a(I3
g128
tp589
a(I0
g140
tp590
a(I1
g126
tp591
a(I2
g126
tp592
a(I3
g126
tp593
a(I0
g142
tp594
a(I1
g140
tp595
a(I2
g126
tp596
a(I3
g128
tp597
a(I0
g140
tp598
a(I1
g140
tp599
a(I2
g128
tp600
a(I3
g126
tp601
a(I0
g142
tp602
a(I1
g126
tp603
a(I2
g128
tp604
a(I3
g128
tp605
a(I0
g140
tp606
a(I1
g128
tp607
a(I2
g126
tp608
a(I3
g126
tp609
a(I0
g142
tp610
a(I1
g140
tp611
a(I2
g142
tp612
a(I3
g128
tp613
a(I0
g140
tp614
a(I1
g140
tp615
a(I2
g140
tp616
a(I3
g126
tp617
a(I0
g142
tp618
a(I1
g128
tp619
a(I2
g126
tp620
a(I3
g128
tp621
a(I0
g140
tp622
a(I1
g126
tp623
a(I2
g128
tp624
a(I3
g126
tp625
a(I0
g142
tp626
a(I1
g142
tp627
a(I2
g128
tp628
a(I3
g128
tp629
a(I0
g140
tp630
a(I1
g142
tp631
a(I2
g126
tp632
a(I3
g126
tp633
a(I0
g142
tp634
a(I1
g128
tp635
a(I2
g142
tp636
a(I3
g128
tp637
a(I0
g140
tp638
a(I1
g128
tp639
a(I2
g140
tp640
a(I3
g126
tp641
a(I0
g142
tp642
a(I1
g128
tp643
a(I2
g128
tp644
a(I3
g128
tp645
a(I0
g140
tp646
a(I1
g140
tp647
a(I2
g126
tp648
a(I3
g126
tp649
a(I0
g142
tp650
a(I1
g140
tp651
a(I2
g142
tp652
a(I3
g128
tp653
a(I0
g140
tp654
a(I1
g142
tp655
a(I2
g140
tp656
a(I3
g126
tp657
a(I0
g142
tp658
a(I1
g142
tp659
a(I2
g126
tp660
a(I3
g128
tp661
a(I0
g140
tp662
a(I1
g142
tp663
a(I2
g128
tp664
a(I3
g126
tp665
a(I0
g142
tp666
a(I1
g142
tp667
a(I2
g142
tp668
a(I3
g128
tp669
a(I0
g140
tp670
a(I1
g140
tp671
a(I2
g140
tp672
a(I3
g126
tp673
a(I0
g142
tp674
a(I1
g140
tp675
a(I2
g128
tp676
a(I3
g128
tp677
a(I0
g140
tp678
a(I1
g126
tp679
a(I2
g126
tp680
a(I3
g126
tp681
a(I0
g142
tp682
a(I1
g126
tp683
a(I2
g142
tp684
a(I3
g128
tp685
a(I0
g140
tp686
a(I1
g126
tp687
a(I2
g140
tp688
a(I3
g126
tp689
a(I0
g142
tp690
a(I1
g140
tp691
a(I2
g126
tp692
a(I3
g128
tp693
a(I0
g140
tp694
a(I1
g140
tp695
a(I2
g128
tp696
a(I3
g126
tp697
a(I0
g142
tp698
a(I1
g126
tp699
a(I2
g128
tp700
a(I3
g128
tp701
a(I0
g140
tp702
a(I1
g126
tp703
a(I2
g126
tp704
a(I3
g126
tp705
a(I0
g142
tp706
a(I1
g126
tp707
a(I2
g126
tp708
a(I3
g128
tp709
a(I0
g140
tp710
a(I1
g140
tp711
a(I2
g128
tp712
a(I3
g126
tp713
a(I0
g142
tp714
a(I1
g140
tp715
a(I2
g126
tp716
a(I3
g128
tp717
a(I0
g140
tp718
a(I1
g126
tp719
a(I2
g126
tp720
a(I3
g126
tp721
a(I0
g142
tp722
a(I1
g126
tp723
a(I2
g126
tp724
a(I3
g128
tp725
a(I0
g140
tp726
a(I1
g126
tp727
a(I2
g142
tp728
a(I3
g126
tp729
a(I0
g142
tp730
a(I1
g126
tp731
a(I2
g142
tp732
a(I3
g128
tp733
a(I0
g140
tp734
a(I1
g126
tp735
a(I2
g142
tp736
a(I3
g126
tp737
a(I0
g142
tp738
a(I1
g126
tp739
a(I2
g126
tp740
a(I3
g128
tp741
a(I0
g140
tp742
a(I1
g126
tp743
a(I2
g126
tp744
a(I3
g126
tp745
a(I0
g142
tp746
a(I1
g142
tp747
a(I2
g126
tp748
a(I3
g128
tp749
a(I0
g140
tp750
a(I1
g126
tp751
a(I2
g142
tp752
a(I3
g126
tp753
a(I0
g142
tp754
a(I1
g126
tp755
a(I2
g126
tp756
a(I3
g128
tp757
a(I0
g140
tp758
a(I1
g142
tp759
a(I2
g126
tp760
a(I3
g126
tp761
a(I0
g142
tp762
a(I1
g142
tp763
a(I2
g142
tp764
a(I3
g128
tp765
a(I0
g140
tp766
a(I1
g142
tp767
a(I2
g142
tp768
a(I3
g126
tp769
a(I0
g142
tp770
a(I1
g142
tp771
a(I2
g142
tp772
a(I3
g128
tp773
a(I0
g140
tp774
a(I1
g140
tp775
a(I2
g126
tp776
a(I3
g126
tp777
a(I0
g142
tp778
a(I1
g140
tp779
a(I2
g126
tp780
a(I3
g128
tp781
a(I0
g140
tp782
a(I1
g140
tp783
a(I2
g140
tp784
a(I3
g126
tp785
a(I0
g142
tp786
a(I1
g140
tp787
a(I2
g140
tp788
a(I3
g128
tp789
a(I0
g140
tp790
a(I1
g140
tp791
asS'length'
p792
I1200
sS'agents'
p793
(lp794
(igame
Agent
p795
(dp796
S'index'
p797
I0
sba(igame
Agent
p798
(dp799
g797
I0
sba(igame
Agent
p800
(dp801
g797
I0
sba(igame
Agent
p802
(dp803
g797
I0
sbasS'redTeamName'
p804
S'BallBusters'
p805
s.