(dp1
S'layout'
p2
(ilayout
Layout
p3
(dp4
S'capsules'
p5
(lp6
(I21
I2
tp7
a(I9
I5
tp8
a(I24
I12
tp9
a(I12
I15
tp10
asS'numGhosts'
p11
I4
sS'food'
p12
(igame
Grid
p13
(dp14
S'CELLS_PER_INT'
p15
I30
sS'width'
p16
I34
sS'data'
p17
(lp18
(lp19
I00
aI00
aI00
aI00
aI00
aI00
aI00
aI00
aI00
aI00
aI00
aI00
aI00
aI00
aI00
aI00
aI00
aI00
aa(lp20
I00
aI00
aI00
aI00
aI00
aI00
aI00
aI00
aI00
aI00
aI00
aI00
aI00
aI00
aI00
aI00
aI00
aI00
aa(lp21
I00
aI00
aI00
aI00
aI00
aI00
aI00
aI00
aI00
aI00
aI00
aI00
aI00
aI00
aI00
aI00
aI00
aI00
aa(lp22
I00
aI00
aI00
aI00
aI00
aI00
aI00
aI00
aI00
aI00
aI00
aI00
aI00
aI00
aI00
aI00
aI00
aI00
aa(lp23
I00
aI00
aI00
aI00
aI00
aI00
aI00
aI00
aI00
aI00
aI00
aI00
aI00
aI00
aI00
aI00
aI00
aI00
aa(lp24
I00
aI00
aI00
aI00
aI00
aI00
aI00
aI00
aI00
aI00
aI00
aI00
aI00
aI00
aI00
aI00
aI00
aI00
aa(lp25
I00
aI00
aI00
aI00
aI00
aI00
aI00
aI00
aI00
aI00
aI00
aI00
aI00
aI00
aI00
aI00
aI00
aI00
aa(lp26
I00
aI01
aI01
aI00
aI01
aI01
aI00
aI00
aI01
aI00
aI01
aI00
aI00
aI01
aI00
aI00
aI00
aI00
aa(lp27
I00
aI00
aI00
aI00
aI00
aI00
aI00
aI00
aI00
aI00
aI00
aI00
aI01
aI00
aI00
aI00
aI00
aI00
aa(lp28
I00
aI01
aI01
aI00
aI01
aI00
aI00
aI00
aI01
aI01
aI00
aI01
aI00
aI00
aI00
aI00
aI00
aI00
aa(lp29
I00
aI00
aI00
aI00
aI00
aI00
aI00
aI00
aI00
aI00
aI00
aI00
aI00
aI00
aI00
aI01
aI00
aI00
aa(lp30
I00
aI01
aI01
aI00
aI01
aI00
aI00
aI00
aI00
aI01
aI01
aI01
aI00
aI01
aI00
aI00
aI00
aI00
aa(lp31
I00
aI00
aI00
aI00
aI00
aI00
aI00
aI00
aI01
aI00
aI00
aI00
aI00
aI00
aI00
aI00
aI01
aI00
aa(lp32
I00
aI00
aI00
aI00
aI01
aI01
aI00
aI01
aI01
aI00
aI00
aI00
aI00
aI00
aI00
aI00
aI00
aI00
aa(lp33
I00
aI01
aI00
aI00
aI00
aI00
aI00
aI00
aI00
aI00
aI00
aI00
aI00
aI00
aI00
aI00
aI00
aI00
aa(lp34
I00
aI00
aI00
aI00
aI00
aI00
aI00
aI00
aI00
aI00
aI00
aI00
aI01
aI00
aI00
aI00
aI00
aI00
aa(lp35
I00
aI00
aI00
aI00
aI00
aI00
aI00
aI00
aI00
aI00
aI00
aI00
aI00
aI00
aI00
aI00
aI00
aI00
aa(lp36
I00
aI00
aI00
aI00
aI00
aI00
aI00
aI00
aI00
aI00
aI00
aI00
aI00
aI00
aI00
aI00
aI00
aI00
aa(lp37
I00
aI00
aI00
aI00
aI00
aI01
aI00
aI00
aI00
aI00
aI00
aI00
aI00
aI00
aI00
aI00
aI00
aI00
aa(lp38
I00
aI00
aI00
aI00
aI00
aI00
aI00
aI00
aI00
aI00
aI00
aI00
aI00
aI00
aI00
aI00
aI01
aI00
aa(lp39
I00
aI00
aI00
aI00
aI00
aI00
aI00
aI00
aI00
aI01
aI01
aI00
aI01
aI01
aI00
aI00
aI00
aI00
aa(lp40
I00
aI01
aI00
aI00
aI00
aI00
aI00
aI00
aI00
aI01
aI00
aI00
aI00
aI00
aI00
aI00
aI00
aI00
aa(lp41
I00
aI00
aI00
aI00
aI01
aI00
aI01
aI01
aI01
aI00
aI00
aI00
aI00
aI01
aI00
aI01
aI01
aI00
aa(lp42
I00
aI00
aI01
aI00
aI00
aI00
aI00
aI00
aI00
aI00
aI00
aI00
aI00
aI00
aI00
aI00
aI00
aI00
aa(lp43
I00
aI00
aI00
aI00
aI00
aI00
aI01
aI00
aI01
aI01
aI00
aI00
aI00
aI01
aI00
aI01
aI01
aI00
aa(lp44
I00
aI00
aI00
aI00
aI00
aI01
aI00
aI00
aI00
aI00
aI00
aI00
aI00
aI00
aI00
aI00
aI00
aI00
aa(lp45
I00
aI00
aI00
aI00
aI01
aI00
aI00
aI01
aI00
aI01
aI00
aI00
aI01
aI01
aI00
aI01
aI01
aI00
aa(lp46
I00
aI00
aI00
aI00
aI00
aI00
aI00
aI00
aI00
aI00
aI00
aI00
aI00
aI00
aI00
aI00
aI00
aI00
aa(lp47
I00
aI00
aI00
aI00
aI00
aI00
aI00
aI00
aI00
aI00
aI00
aI00
aI00
aI00
aI00
aI00
aI00
aI00
aa(lp48
I00
aI00
aI00
aI00
aI00
aI00
aI00
aI00
aI00
aI00
aI00
aI00
aI00
aI00
aI00
aI00
aI00
aI00
aa(lp49
I00
aI00
aI00
aI00
aI00
aI00
aI00
aI00
aI00
aI00
aI00
aI00
aI00
aI00
aI00
aI00
aI00
aI00
aa(lp50
I00
aI00
aI00
aI00
aI00
aI00
aI00
aI00
aI00
aI00
aI00
aI00
aI00
aI00
aI00
aI00
aI00
aI00
aa(lp51
I00
aI00
aI00
aI00
aI00
aI00
aI00
aI00
aI00
aI00
aI00
aI00
aI00
aI00
aI00
aI00
aI00
aI00
aa(lp52
I00
aI00
aI00
aI00
aI00
aI00
aI00
aI00
aI00
aI00
aI00
aI00
aI00
aI00
aI00
aI00
aI00
aI00
aasS'height'
p53
I18
sbsS'agentPositions'
p54
(lp55
(I00
(I1
I2
tp56
tp57
a(I00
(I32
I15
tp58
tp59
a(I00
(I1
I1
tp60
tp61
a(I00
(I32
I16
tp62
tp63
asg53
I18
sg16
I34
sS'walls'
p64
(igame
Grid
p65
(dp66
g15
I30
sg16
I34
sg17
(lp67
(lp68
I01
aI01
aI01
aI01
aI01
aI01
aI01
aI01
aI01
aI01
aI01
aI01
aI01
aI01
aI01
aI01
aI01
aI01
aa(lp69
I01
aI00
aI00
aI00
aI00
aI00
aI00
aI00
aI00
aI00
aI00
aI00
aI00
aI00
aI00
aI00
aI00
aI01
aa(lp70
I01
aI01
aI01
aI01
aI01
aI01
aI01
aI01
aI01
aI01
aI01
aI01
aI01
aI01
aI01
aI01
aI00
aI01
aa(lp71
I01
aI00
aI00
aI00
aI00
aI00
aI00
aI00
aI00
aI00
aI00
aI00
aI00
aI00
aI00
aI00
aI00
aI01
aa(lp72
I01
aI00
aI01
aI01
aI01
aI01
aI01
aI01
aI01
aI01
aI01
aI01
aI01
aI01
aI01
aI01
aI01
aI01
aa(lp73
I01
aI00
aI00
aI00
aI00
aI00
aI00
aI00
aI00
aI00
aI00
aI00
aI00
aI00
aI00
aI00
aI00
aI01
aa(lp74
I01
aI01
aI01
aI01
aI01
aI01
aI01
aI01
aI01
aI01
aI01
aI01
aI01
aI01
aI01
aI01
aI00
aI01
aa(lp75
I01
aI00
aI00
aI00
aI00
aI00
aI00
aI00
aI00
aI00
aI00
aI00
aI00
aI00
aI01
aI00
aI00
aI01
aa(lp76
I01
aI01
aI01
aI01
aI01
aI01
aI00
aI01
aI01
aI01
aI01
aI01
aI00
aI01
aI01
aI00
aI00
aI01
aa(lp77
I01
aI00
aI00
aI00
aI00
aI00
aI00
aI00
aI00
aI00
aI01
aI00
aI00
aI00
aI01
aI01
aI00
aI01
aa(lp78
I01
aI01
aI01
aI01
aI01
aI01
aI01
aI01
aI01
aI01
aI01
aI01
aI01
aI00
aI01
aI00
aI00
aI01
aa(lp79
I01
aI00
aI00
aI00
aI00
aI00
aI00
aI00
aI00
aI00
aI00
aI00
aI01
aI00
aI00
aI00
aI00
aI01
aa(lp80
I01
aI01
aI01
aI01
aI01
aI01
aI01
aI01
aI00
aI01
aI01
aI01
aI01
aI00
aI01
aI00
aI00
aI01
aa(lp81
I01
aI00
aI00
aI00
aI00
aI00
aI00
aI00
aI00
aI00
aI00
aI00
aI00
aI00
aI00
aI00
aI00
aI01
aa(lp82
I01
aI00
aI01
aI01
aI01
aI01
aI01
aI01
aI01
aI00
aI01
aI01
aI01
aI01
aI00
aI01
aI01
aI01
aa(lp83
I01
aI00
aI00
aI00
aI00
aI01
aI00
aI00
aI00
aI00
aI00
aI01
aI00
aI01
aI00
aI00
aI00
aI01
aa(lp84
I01
aI00
aI00
aI01
aI00
aI00
aI00
aI01
aI00
aI00
aI00
aI00
aI00
aI00
aI00
aI01
aI00
aI01
aa(lp85
I01
aI00
aI01
aI00
aI00
aI00
aI00
aI00
aI00
aI00
aI01
aI00
aI00
aI00
aI01
aI00
aI00
aI01
aa(lp86
I01
aI00
aI00
aI00
aI01
aI00
aI01
aI00
aI00
aI00
aI00
aI00
aI01
aI00
aI00
aI00
aI00
aI01
aa(lp87
I01
aI01
aI01
aI00
aI01
aI01
aI01
aI01
aI00
aI01
aI01
aI01
aI01
aI01
aI01
aI01
aI00
aI01
aa(lp88
I01
aI00
aI00
aI00
aI00
aI00
aI00
aI00
aI00
aI00
aI00
aI00
aI00
aI00
aI00
aI00
aI00
aI01
aa(lp89
I01
aI00
aI00
aI01
aI00
aI01
aI01
aI01
aI01
aI00
aI01
aI01
aI01
aI01
aI01
aI01
aI01
aI01
aa(lp90
I01
aI00
aI00
aI00
aI00
aI01
aI00
aI00
aI00
aI00
aI00
aI00
aI00
aI00
aI00
aI00
aI00
aI01
aa(lp91
I01
aI00
aI00
aI01
aI00
aI01
aI01
aI01
aI01
aI01
aI01
aI01
aI01
aI01
aI01
aI01
aI01
aI01
aa(lp92
I01
aI00
aI01
aI01
aI00
aI00
aI00
aI01
aI00
aI00
aI00
aI00
aI00
aI00
aI00
aI00
aI00
aI01
aa(lp93
I01
aI00
aI00
aI01
aI01
aI00
aI01
aI01
aI01
aI01
aI01
aI00
aI01
aI01
aI01
aI01
aI01
aI01
aa(lp94
I01
aI00
aI00
aI01
aI00
aI00
aI00
aI00
aI00
aI00
aI00
aI00
aI00
aI00
aI00
aI00
aI00
aI01
aa(lp95
I01
aI00
aI01
aI01
aI01
aI01
aI01
aI01
aI01
aI01
aI01
aI01
aI01
aI01
aI01
aI01
aI01
aI01
aa(lp96
I01
aI00
aI00
aI00
aI00
aI00
aI00
aI00
aI00
aI00
aI00
aI00
aI00
aI00
aI00
aI00
aI00
aI01
aa(lp97
I01
aI01
aI01
aI01
aI01
aI01
aI01
aI01
aI01
aI01
aI01
aI01
aI01
aI01
aI01
aI01
aI00
aI01
aa(lp98
I01
aI00
aI00
aI00
aI00
aI00
aI00
aI00
aI00
aI00
aI00
aI00
aI00
aI00
aI00
aI00
aI00
aI01
aa(lp99
I01
aI00
aI01
aI01
aI01
aI01
aI01
aI01
aI01
aI01
aI01
aI01
aI01
aI01
aI01
aI01
aI01
aI01
aa(lp100
I01
aI00
aI00
aI00
aI00
aI00
aI00
aI00
aI00
aI00
aI00
aI00
aI00
aI00
aI00
aI00
aI00
aI01
aa(lp101
I01
aI01
aI01
aI01
aI01
aI01
aI01
aI01
aI01
aI01
aI01
aI01
aI01
aI01
aI01
aI01
aI01
aI01
aasg53
I18
sbsS'layoutText'
p102
(lp103
S'%%%%%%%%%%%%%%%%%%%%%%%%%%%%%%%%%%'
p104
aS'%   %       . %    . %.%.%.%   %4%'
p105
aS'% % % %  %. o % %  % %.%.%.% % %2%'
p106
aS'% % % %%%%% %    % % % % % % % % %'
p107
aS'% % % %.%  .  %%   %.%.%.%.% % % %'
p108
aS'% % % % . %%% %.  %%.% %o%.% % % %'
p109
aS'% % % % %.%.% %%   % % %   % % % %'
p110
aS'% % % %.%%%.% %  % %.% % % % % % %'
p111
aS'% % % % %.%.%      %.. %.%.% % % %'
p112
aS'% % % %.%.% ..%      %.%.% % % % %'
p113
aS'% % % % % % %.% %  % %.%%%.% % % %'
p114
aS'% % % %   % % %   %% %.%.% % % % %'
p115
aS'% % % %.%o% %.%%  .% %%% . % % % %'
p116
aS'% % % %.%.%.%.%   %%  .  %.% % % %'
p117
aS'% % % % % % % % %    % %%%%% % % %'
p118
aS'%1% % %.%.%.% %  % % o .%  % % % %'
p119
aS'%3%   %.%.%.% .    % .       %   %'
p120
aS'%%%%%%%%%%%%%%%%%%%%%%%%%%%%%%%%%%'
p121
asbsS'blueTeamName'
p122
S'BallBusters'
p123
sS'actions'
p124
(lp125
(I0
S'North'
p126
tp127
a(I1
S'South'
p128
tp129
a(I2
g126
tp130
a(I3
g128
tp131
a(I0
g126
tp132
a(I1
g128
tp133
a(I2
g126
tp134
a(I3
g128
tp135
a(I0
g126
tp136
a(I1
g128
tp137
a(I2
g126
tp138
a(I3
g128
tp139
a(I0
g126
tp140
a(I1
g128
tp141
a(I2
g126
tp142
a(I3
g128
tp143
a(I0
g126
tp144
a(I1
g128
tp145
a(I2
g126
tp146
a(I3
g128
tp147
a(I0
g126
tp148
a(I1
g128
tp149
a(I2
g126
tp150
a(I3
g128
tp151
a(I0
g126
tp152
a(I1
g128
tp153
a(I2
g126
tp154
a(I3
g128
tp155
a(I0
g126
tp156
a(I1
g128
tp157
a(I2
g126
tp158
a(I3
g128
tp159
a(I0
g126
tp160
a(I1
g128
tp161
a(I2
g126
tp162
a(I3
g128
tp163
a(I0
g126
tp164
a(I1
g128
tp165
a(I2
g126
tp166
a(I3
g128
tp167
a(I0
g126
tp168
a(I1
g128
tp169
a(I2
g126
tp170
a(I3
g128
tp171
a(I0
g126
tp172
a(I1
g128
tp173
a(I2
g126
tp174
a(I3
g128
tp175
a(I0
g126
tp176
a(I1
g128
tp177
a(I2
g126
tp178
a(I3
g128
tp179
a(I0
g126
tp180
a(I1
g128
tp181
a(I2
g126
tp182
a(I3
g128
tp183
a(I0
S'East'
p184
tp185
a(I1
S'West'
p186
tp187
a(I2
g126
tp188
a(I3
g128
tp189
a(I0
g184
tp190
a(I1
g186
tp191
a(I2
g184
tp192
a(I3
g186
tp193
a(I0
g128
tp194
a(I1
g126
tp195
a(I2
g184
tp196
a(I3
g186
tp197
a(I0
g128
tp198
a(I1
g126
tp199
a(I2
g128
tp200
a(I3
g126
tp201
a(I0
g128
tp202
a(I1
g126
tp203
a(I2
g128
tp204
a(I3
g126
tp205
a(I0
g128
tp206
a(I1
g126
tp207
a(I2
g128
tp208
a(I3
g126
tp209
a(I0
g128
tp210
a(I1
g126
tp211
a(I2
g128
tp212
a(I3
g126
tp213
a(I0
g128
tp214
a(I1
g126
tp215
a(I2
g128
tp216
a(I3
g126
tp217
a(I0
g128
tp218
a(I1
g126
tp219
a(I2
g128
tp220
a(I3
g126
tp221
a(I0
g128
tp222
a(I1
g126
tp223
a(I2
g128
tp224
a(I3
g126
tp225
a(I0
g128
tp226
a(I1
g126
tp227
a(I2
g128
tp228
a(I3
g126
tp229
a(I0
g128
tp230
a(I1
g126
tp231
a(I2
g128
tp232
a(I3
g126
tp233
a(I0
g128
tp234
a(I1
g126
tp235
a(I2
g128
tp236
a(I3
g126
tp237
a(I0
g128
tp238
a(I1
g126
tp239
a(I2
g128
tp240
a(I3
g126
tp241
a(I0
g128
tp242
a(I1
g126
tp243
a(I2
g128
tp244
a(I3
g126
tp245
a(I0
g128
tp246
a(I1
g126
tp247
a(I2
g128
tp248
a(I3
g126
tp249
a(I0
g128
tp250
a(I1
g126
tp251
a(I2
g128
tp252
a(I3
g126
tp253
a(I0
g184
tp254
a(I1
g186
tp255
a(I2
g128
tp256
a(I3
g126
tp257
a(I0
g184
tp258
a(I1
g186
tp259
a(I2
g184
tp260
a(I3
g186
tp261
a(I0
g126
tp262
a(I1
g128
tp263
a(I2
g184
tp264
a(I3
g186
tp265
a(I0
g126
tp266
a(I1
g128
tp267
a(I2
g126
tp268
a(I3
g128
tp269
a(I0
g126
tp270
a(I1
g128
tp271
a(I2
g126
tp272
a(I3
g128
tp273
a(I0
g126
tp274
a(I1
g128
tp275
a(I2
g126
tp276
a(I3
g128
tp277
a(I0
g126
tp278
a(I1
g128
tp279
a(I2
g126
tp280
a(I3
g128
tp281
a(I0
g126
tp282
a(I1
g128
tp283
a(I2
g126
tp284
a(I3
g128
tp285
a(I0
g126
tp286
a(I1
g128
tp287
a(I2
g126
tp288
a(I3
g128
tp289
a(I0
g126
tp290
a(I1
g128
tp291
a(I2
g126
tp292
a(I3
g128
tp293
a(I0
g126
tp294
a(I1
g128
tp295
a(I2
g126
tp296
a(I3
g128
tp297
a(I0
g126
tp298
a(I1
g128
tp299
a(I2
g126
tp300
a(I3
g128
tp301
a(I0
g126
tp302
a(I1
g128
tp303
a(I2
g126
tp304
a(I3
g128
tp305
a(I0
g126
tp306
a(I1
g128
tp307
a(I2
g128
tp308
a(I3
g128
tp309
a(I0
g126
tp310
a(I1
g128
tp311
a(I2
g128
tp312
a(I3
g128
tp313
a(I0
g126
tp314
a(I1
g128
tp315
a(I2
g128
tp316
a(I3
g128
tp317
a(I0
g126
tp318
a(I1
g128
tp319
a(I2
g128
tp320
a(I3
g128
tp321
a(I0
g184
tp322
a(I1
g186
tp323
a(I2
g128
tp324
a(I3
g128
tp325
a(I0
g184
tp326
a(I1
g186
tp327
a(I2
g128
tp328
a(I3
g186
tp329
a(I0
g184
tp330
a(I1
g186
tp331
a(I2
g126
tp332
a(I3
g186
tp333
a(I0
g184
tp334
a(I1
g186
tp335
a(I2
g126
tp336
a(I3
g186
tp337
a(I0
g184
tp338
a(I1
g186
tp339
a(I2
g126
tp340
a(I3
g186
tp341
a(I0
g128
tp342
a(I1
g126
tp343
a(I2
g126
tp344
a(I3
g186
tp345
a(I0
g184
tp346
a(I1
g186
tp347
a(I2
g126
tp348
a(I3
g186
tp349
a(I0
g184
tp350
a(I1
g186
tp351
a(I2
g126
tp352
a(I3
g126
tp353
a(I0
g184
tp354
a(I1
g186
tp355
a(I2
g128
tp356
a(I3
g186
tp357
a(I0
g128
tp358
a(I1
g126
tp359
a(I2
g128
tp360
a(I3
g186
tp361
a(I0
g184
tp362
a(I1
g186
tp363
a(I2
g128
tp364
a(I3
g126
tp365
a(I0
g184
tp366
a(I1
g186
tp367
a(I2
g128
tp368
a(I3
g186
tp369
a(I0
g126
tp370
a(I1
g128
tp371
a(I2
g128
tp372
a(I3
g186
tp373
a(I0
g126
tp374
a(I1
g128
tp375
a(I2
g128
tp376
a(I3
g186
tp377
a(I0
g184
tp378
a(I1
g186
tp379
a(I2
g126
tp380
a(I3
g126
tp381
a(I0
g184
tp382
a(I1
g186
tp383
a(I2
g126
tp384
a(I3
g126
tp385
a(I0
g184
tp386
a(I1
g186
tp387
a(I2
g126
tp388
a(I3
g126
tp389
a(I0
g184
tp390
a(I1
g186
tp391
a(I2
g126
tp392
a(I3
g126
tp393
a(I0
g184
tp394
a(I1
g186
tp395
a(I2
g126
tp396
a(I3
g126
tp397
a(I0
g128
tp398
a(I1
g126
tp399
a(I2
g126
tp400
a(I3
g184
tp401
a(I0
g128
tp402
a(I1
g126
tp403
a(I2
g128
tp404
a(I3
g186
tp405
a(I0
g128
tp406
a(I1
g126
tp407
a(I2
g128
tp408
a(I3
g128
tp409
a(I0
g128
tp410
a(I1
g126
tp411
a(I2
g128
tp412
a(I3
g126
tp413
a(I0
g128
tp414
a(I1
g126
tp415
a(I2
g128
tp416
a(I3
g126
tp417
a(I0
g128
tp418
a(I1
g126
tp419
a(I2
g128
tp420
a(I3
g184
tp421
a(I0
g128
tp422
a(I1
g126
tp423
a(I2
g128
tp424
a(I3
g128
tp425
a(I0
g184
tp426
a(I1
g186
tp427
a(I2
g126
tp428
a(I3
g184
tp429
a(I0
g184
tp430
a(I1
g186
tp431
a(I2
g126
tp432
a(I3
g184
tp433
a(I0
g128
tp434
a(I1
g126
tp435
a(I2
g126
tp436
a(I3
g126
tp437
a(I0
g128
tp438
a(I1
g126
tp439
a(I2
g126
tp440
a(I3
g184
tp441
a(I0
g128
tp442
a(I1
g126
tp443
a(I2
g126
tp444
a(I3
g184
tp445
a(I0
g126
tp446
a(I1
g128
tp447
a(I2
g126
tp448
a(I3
g128
tp449
a(I0
g128
tp450
a(I1
g128
tp451
a(I2
g128
tp452
a(I3
g128
tp453
a(I0
g126
tp454
a(I1
g128
tp455
a(I2
g128
tp456
a(I3
g126
tp457
a(I0
g126
tp458
a(I1
g128
tp459
a(I2
g128
tp460
a(I3
g126
tp461
a(I0
g126
tp462
a(I1
g128
tp463
a(I2
g128
tp464
a(I3
g186
tp465
a(I0
g126
tp466
a(I1
g128
tp467
a(I2
g128
tp468
a(I3
g186
tp469
a(I0
g126
tp470
a(I1
g128
tp471
a(I2
g128
tp472
a(I3
g128
tp473
a(I0
g126
tp474
a(I1
g128
tp475
a(I2
g126
tp476
a(I3
g186
tp477
a(I0
g126
tp478
a(I1
g128
tp479
a(I2
g126
tp480
a(I3
g186
tp481
a(I0
g126
tp482
a(I1
g128
tp483
a(I2
g126
tp484
a(I3
g186
tp485
a(I0
g126
tp486
a(I1
g126
tp487
a(I2
g126
tp488
a(I3
g126
tp489
a(I0
g126
tp490
a(I1
g126
tp491
a(I2
g126
tp492
a(I3
g128
tp493
a(I0
g126
tp494
a(I1
g126
tp495
a(I2
g126
tp496
a(I3
g128
tp497
a(I0
g126
tp498
a(I1
g126
tp499
a(I2
g128
tp500
a(I3
g126
tp501
a(I0
g126
tp502
a(I1
g126
tp503
a(I2
g128
tp504
a(I3
g184
tp505
a(I0
g126
tp506
a(I1
g126
tp507
a(I2
g128
tp508
a(I3
g186
tp509
a(I0
g126
tp510
a(I1
g126
tp511
a(I2
g128
tp512
a(I3
g126
tp513
a(I0
g184
tp514
a(I1
g184
tp515
a(I2
g128
tp516
a(I3
g128
tp517
a(I0
g184
tp518
a(I1
g184
tp519
a(I2
g128
tp520
a(I3
g184
tp521
a(I0
g128
tp522
a(I1
g126
tp523
a(I2
g126
tp524
a(I3
g186
tp525
a(I0
g128
tp526
a(I1
g126
tp527
a(I2
g126
tp528
a(I3
g126
tp529
a(I0
g128
tp530
a(I1
g126
tp531
a(I2
g126
tp532
a(I3
g128
tp533
a(I0
g128
tp534
a(I1
g126
tp535
a(I2
g126
tp536
a(I3
g128
tp537
a(I0
g128
tp538
a(I1
g126
tp539
a(I2
g126
tp540
a(I3
g126
tp541
a(I0
g128
tp542
a(I1
g186
tp543
a(I2
g126
tp544
a(I3
g126
tp545
a(I0
g128
tp546
a(I1
g186
tp547
a(I2
g128
tp548
a(I3
g128
tp549
a(I0
g128
tp550
a(I1
g126
tp551
a(I2
g128
tp552
a(I3
g184
tp553
a(I0
g128
tp554
a(I1
g126
tp555
a(I2
g128
tp556
a(I3
g186
tp557
a(I0
g128
tp558
a(I1
g186
tp559
a(I2
g128
tp560
a(I3
g128
tp561
a(I0
g128
tp562
a(I1
g184
tp563
a(I2
g128
tp564
a(I3
g126
tp565
a(I0
g128
tp566
a(I1
g126
tp567
a(I2
g128
tp568
a(I3
g126
tp569
a(I0
g128
tp570
a(I1
g184
tp571
a(I2
g126
tp572
a(I3
g128
tp573
a(I0
g128
tp574
a(I1
g186
tp575
a(I2
g126
tp576
a(I3
g184
tp577
a(I0
g128
tp578
a(I1
g128
tp579
a(I2
g126
tp580
a(I3
g186
tp581
a(I0
g184
tp582
a(I1
g128
tp583
a(I2
g126
tp584
a(I3
g126
tp585
a(I0
g184
tp586
a(I1
g128
tp587
a(I2
g126
tp588
a(I3
g128
tp589
a(I0
g126
tp590
a(I1
g186
tp591
a(I2
g126
tp592
a(I3
g128
tp593
a(I0
g126
tp594
a(I1
g186
tp595
a(I2
g128
tp596
a(I3
g126
tp597
a(I0
g126
tp598
a(I1
g128
tp599
a(I2
g128
tp600
a(I3
g126
tp601
a(I0
g126
tp602
a(I1
g186
tp603
a(I2
g128
tp604
a(I3
g128
tp605
a(I0
g126
tp606
a(I1
g186
tp607
a(I2
g128
tp608
a(I3
g128
tp609
a(I0
g126
tp610
a(I1
g126
tp611
a(I2
g128
tp612
a(I3
g126
tp613
a(I0
g126
tp614
a(I1
g128
tp615
a(I2
g128
tp616
a(I3
g184
tp617
a(I0
g126
tp618
a(I1
g128
tp619
a(I2
g126
tp620
a(I3
g186
tp621
a(I0
g126
tp622
a(I1
g128
tp623
a(I2
g126
tp624
a(I3
g128
tp625
a(I0
g126
tp626
a(I1
g128
tp627
a(I2
g126
tp628
a(I3
g126
tp629
a(I0
g126
tp630
a(I1
g128
tp631
a(I2
g126
tp632
a(I3
g126
tp633
a(I0
g126
tp634
a(I1
g128
tp635
a(I2
g126
tp636
a(I3
g128
tp637
a(I0
g126
tp638
a(I1
g128
tp639
a(I2
g126
tp640
a(I3
g184
tp641
a(I0
g126
tp642
a(I1
g128
tp643
a(I2
g128
tp644
a(I3
g186
tp645
a(I0
g126
tp646
a(I1
g128
tp647
a(I2
g128
tp648
a(I3
g128
tp649
a(I0
g184
tp650
a(I1
g128
tp651
a(I2
g128
tp652
a(I3
g126
tp653
a(I0
g184
tp654
a(I1
g128
tp655
a(I2
g128
tp656
a(I3
g126
tp657
a(I0
g184
tp658
a(I1
g128
tp659
a(I2
g128
tp660
a(I3
g128
tp661
a(I0
g184
tp662
a(I1
g126
tp663
a(I2
g128
tp664
a(I3
g184
tp665
a(I0
g184
tp666
a(I1
g128
tp667
a(I2
g126
tp668
a(I3
g186
tp669
a(I0
g128
tp670
a(I1
g126
tp671
a(I2
g126
tp672
a(I3
g126
tp673
a(I0
g184
tp674
a(I1
g126
tp675
a(I2
g126
tp676
a(I3
g128
tp677
a(I0
g128
tp678
a(I1
g126
tp679
a(I2
g126
tp680
a(I3
g128
tp681
a(I0
g128
tp682
a(I1
g126
tp683
a(I2
g126
tp684
a(I3
g126
tp685
a(I0
g184
tp686
a(I1
g126
tp687
a(I2
g126
tp688
a(I3
g184
tp689
a(I0
g184
tp690
a(I1
g184
tp691
a(I2
g128
tp692
a(I3
g186
tp693
a(I0
g128
tp694
a(I1
g184
tp695
a(I2
g128
tp696
a(I3
g126
tp697
a(I0
g128
tp698
a(I1
g126
tp699
a(I2
g128
tp700
a(I3
g128
tp701
a(I0
g128
tp702
a(I1
g126
tp703
a(I2
g126
tp704
a(I3
g184
tp705
a(I0
g128
tp706
a(I1
g126
tp707
a(I2
g126
tp708
a(I3
g186
tp709
a(I0
g184
tp710
a(I1
g128
tp711
a(I2
g126
tp712
a(I3
g126
tp713
a(I0
g184
tp714
a(I1
g126
tp715
a(I2
g128
tp716
a(I3
g128
tp717
a(I0
g184
tp718
a(I1
g128
tp719
a(I2
g128
tp720
a(I3
g184
tp721
a(I0
g128
tp722
a(I1
g126
tp723
a(I2
g126
tp724
a(I3
g186
tp725
a(I0
g186
tp726
a(I1
g128
tp727
a(I2
g126
tp728
a(I3
g128
tp729
a(I0
g128
tp730
a(I1
g126
tp731
a(I2
g128
tp732
a(I3
g126
tp733
a(I0
g128
tp734
a(I1
g128
tp735
a(I2
g128
tp736
a(I3
g126
tp737
a(I0
g184
tp738
a(I1
g126
tp739
a(I2
g126
tp740
a(I3
g128
tp741
a(I0
g128
tp742
a(I1
g128
tp743
a(I2
g126
tp744
a(I3
g184
tp745
a(I0
g184
tp746
a(I1
g128
tp747
a(I2
g128
tp748
a(I3
g128
tp749
a(I0
g184
tp750
a(I1
g128
tp751
a(I2
g128
tp752
a(I3
g186
tp753
a(I0
g186
tp754
a(I1
g128
tp755
a(I2
g128
tp756
a(I3
g128
tp757
a(I0
g128
tp758
a(I1
g128
tp759
a(I2
g128
tp760
a(I3
g128
tp761
a(I0
g128
tp762
a(I1
g128
tp763
a(I2
g128
tp764
a(I3
g128
tp765
a(I0
g184
tp766
a(I1
g128
tp767
a(I2
g128
tp768
a(I3
g128
tp769
a(I0
g184
tp770
a(I1
g128
tp771
asS'length'
p772
I1200
sS'agents'
p773
(lp774
(igame
Agent
p775
(dp776
S'index'
p777
I0
sba(igame
Agent
p778
(dp779
g777
I0
sba(igame
Agent
p780
(dp781
g777
I0
sba(igame
Agent
p782
(dp783
g777
I0
sbasS'redTeamName'
p784
S'ElDiabloandtheMagicMan'
p785
s.